; Function Attrs: mustprogress nofree norecurse nosync nounwind willreturn memory(argmem: read) uwtable
define noundef zeroext i1 @_ZN6duckdb18DistinctStatistics15TypeIsSupportedERKNS_11LogicalTypeE(ptr noundef nonnull readonly align 8 captures(none) dereferenceable(24) %0) local_unnamed_addr #6 align 2 {
  %2 = getelementptr inbounds nuw i8, ptr %0, i64 1
  %3 = load i8, ptr %2, align 1, !tbaa !29
  switch i8 %3, label %4 [
    i8 23, label %5
    i8 24, label %5
    i8 29, label %5
    i8 -50, label %5
    i8 1, label %5
  ]

4:                                                ; preds = %1
  br label %5

5:                                                ; preds = %1, %1, %1, %1, %1, %4
  %.0 = phi i1 [ true, %4 ], [ false, %1 ], [ false, %1 ], [ false, %1 ], [ false, %1 ], [ false, %1 ]
  ret i1 %.0
}